target datalayout = "e-m:e-p270:32:32-p271:32:32-p272:64:64-i64:64-i128:128-f80:128-n8:16:32:64-S128"
target triple = "x86_64-pc-linux-gnu"

%class.btSpinMutex = type { i32 }
%class.btDiscreteDynamicsWorld = type <{ %class.btDynamicsWorld, %class.btAlignedObjectArray.12, ptr, ptr, ptr, %class.btAlignedObjectArray.12, %class.btAlignedObjectArray.14, %class.btVector3, float, float, i8, i8, i8, i8, [4 x i8], %class.btAlignedObjectArray.16, i32, i8, [3 x i8], %class.btAlignedObjectArray.18, %class.btSpinMutex, [4 x i8] }>
%class.btDynamicsWorld = type { %class.btCollisionWorld.base, ptr, ptr, ptr, %struct.btContactSolverInfo }
%class.btCollisionWorld.base = type <{ ptr, %class.btAlignedObjectArray.10, ptr, %struct.btDispatcherInfo, ptr, ptr, i8 }>
%class.btAlignedObjectArray.10 = type <{ [4 x i8], i32, i32, [4 x i8], ptr, i8, [7 x i8] }>
%struct.btDispatcherInfo = type <{ float, i32, i32, float, i8, [7 x i8], ptr, i8, i8, i8, i8, float, i8, [3 x i8], float, i8, [7 x i8] }>
%struct.btContactSolverInfo = type { %struct.btContactSolverInfoData }
%struct.btContactSolverInfoData = type { float, float, float, float, float, i32, float, float, float, float, float, float, float, float, float, float, i32, float, float, float, float, float, i32, i32, i32, float, float, float, float, i8, i8, i32, i32 }
%class.btAlignedObjectArray.12 = type <{ [4 x i8], i32, i32, [4 x i8], ptr, i8, [7 x i8] }>
%class.btAlignedObjectArray.14 = type <{ [4 x i8], i32, i32, [4 x i8], ptr, i8, [7 x i8] }>
%class.btVector3 = type { [4 x float] }
%class.btAlignedObjectArray.16 = type <{ [4 x i8], i32, i32, [4 x i8], ptr, i8, [7 x i8] }>
%class.btAlignedObjectArray.18 = type <{ [4 x i8], i32, i32, [4 x i8], ptr, i8, [7 x i8] }>
%class.CProfileSample = type { i8 }
%class.btIParallelForBody = type { ptr }
%"struct.btDiscreteDynamicsWorldMt::UpdaterCreatePredictiveContacts" = type { %class.btIParallelForBody, float, ptr, ptr }

@.str.2 = private unnamed_addr constant [25 x i8] c"createPredictiveContacts\00", align 1
@_ZTV18btIParallelForBody = linkonce_odr dso_local unnamed_addr constant { [5 x ptr] } { [5 x ptr] [ptr null, ptr @_ZTI18btIParallelForBody, ptr @_ZN18btIParallelForBodyD2Ev, ptr @_ZN18btIParallelForBodyD0Ev, ptr @__cxa_pure_virtual] }, comdat, align 8

; Function Attrs: inlinehint mustprogress nounwind uwtable
define linkonce_odr dso_local void @_ZN18btIParallelForBodyC2Ev(ptr noundef nonnull align 8 dereferenceable(8) %0) unnamed_addr #4 comdat align 2 {
  %2 = alloca ptr, align 8
  store ptr %0, ptr %2, align 8, !tbaa !152
  %3 = load ptr, ptr %2, align 8
  store ptr getelementptr inbounds inrange(-16, 24) ({ [5 x ptr] }, ptr @_ZTV18btIParallelForBody, i32 0, i32 0, i32 2), ptr %3, align 8, !tbaa !37
  ret void
}

; Function Attrs: mustprogress nounwind uwtable
define linkonce_odr dso_local void @_ZN18btIParallelForBodyD2Ev(ptr noundef nonnull align 8 dereferenceable(8) %0) unnamed_addr #1 comdat align 2 {
  %2 = alloca ptr, align 8
  store ptr %0, ptr %2, align 8, !tbaa !152
  ret void
}

; Function Attrs: inlinehint mustprogress nounwind uwtable
define linkonce_odr dso_local noundef nonnull align 8 dereferenceable(8) ptr @_ZN20btAlignedObjectArrayIP11btRigidBodyEixEi(ptr noundef nonnull align 8 dereferenceable(25) %0, i32 noundef %1) #4 comdat align 2 {
  %3 = alloca ptr, align 8
  %4 = alloca i32, align 4
  store ptr %0, ptr %3, align 8, !tbaa !134
  store i32 %1, ptr %4, align 4, !tbaa !9
  %5 = load ptr, ptr %3, align 8
  %6 = getelementptr inbounds nuw %class.btAlignedObjectArray.14, ptr %5, i32 0, i32 4
  %7 = load ptr, ptr %6, align 8, !tbaa !139
  %8 = load i32, ptr %4, align 4, !tbaa !9
  %9 = sext i32 %8 to i64
  %10 = getelementptr inbounds ptr, ptr %7, i64 %9
  ret ptr %10
}

; Function Attrs: inlinehint mustprogress nounwind uwtable
define linkonce_odr dso_local void @_ZN25btDiscreteDynamicsWorldMt31UpdaterCreatePredictiveContactsC2Ev(ptr noundef nonnull align 8 dereferenceable(32) %0) unnamed_addr #4 comdat align 2 {
  %2 = alloca ptr, align 8
  store ptr %0, ptr %2, align 8, !tbaa !144
  %3 = load ptr, ptr %2, align 8
  call void @_ZN18btIParallelForBodyC2Ev(ptr noundef nonnull align 8 dereferenceable(8) %3) #13
  store ptr getelementptr inbounds inrange(-16, 24) ({ [5 x ptr] }, ptr @_ZTVN25btDiscreteDynamicsWorldMt31UpdaterCreatePredictiveContactsE, i32 0, i32 0, i32 2), ptr %3, align 8, !tbaa !37
  ret void
}

; Function Attrs: inlinehint mustprogress nounwind uwtable
define linkonce_odr dso_local noundef i32 @_ZNK20btAlignedObjectArrayIP11btRigidBodyE4sizeEv(ptr noundef nonnull align 8 dereferenceable(25) %0) #4 comdat align 2 {
  %2 = alloca ptr, align 8
  store ptr %0, ptr %2, align 8, !tbaa !134
  %3 = load ptr, ptr %2, align 8
  %4 = getelementptr inbounds nuw %class.btAlignedObjectArray.14, ptr %3, i32 0, i32 1
  %5 = load i32, ptr %4, align 4, !tbaa !136
  ret i32 %5
}

; Function Attrs: mustprogress uwtable
define dso_local void @_ZN25btDiscreteDynamicsWorldMt24createPredictiveContactsEf(ptr noundef nonnull align 8 dereferenceable(520) %0, float noundef %1) unnamed_addr #2 align 2 personality ptr @__gxx_personality_v0 {
  %3 = alloca ptr, align 8
  %4 = alloca float, align 4
  %5 = alloca %class.CProfileSample, align 1
  %6 = alloca ptr, align 8
  %7 = alloca i32, align 4
  %8 = alloca %"struct.btDiscreteDynamicsWorldMt::UpdaterCreatePredictiveContacts", align 8
  %9 = alloca i32, align 4
  store ptr %0, ptr %3, align 8, !tbaa !68
  store float %1, ptr %4, align 4, !tbaa !129
  %10 = load ptr, ptr %3, align 8
  call void @llvm.lifetime.start.p0(i64 1, ptr %5) #13
  call void @_ZN14CProfileSampleC1EPKc(ptr noundef nonnull align 1 dereferenceable(1) %5, ptr noundef @.str.2)
  invoke void @_ZN23btDiscreteDynamicsWorld25releasePredictiveContactsEv(ptr noundef nonnull align 8 dereferenceable(508) %10)
          to label %11 unwind label %29

11:                                               ; preds = %2
  %12 = getelementptr inbounds nuw %class.btDiscreteDynamicsWorld, ptr %10, i32 0, i32 6
  %13 = invoke noundef i32 @_ZNK20btAlignedObjectArrayIP11btRigidBodyE4sizeEv(ptr noundef nonnull align 8 dereferenceable(25) %12)
          to label %14 unwind label %29

14:                                               ; preds = %11
  %15 = icmp sgt i32 %13, 0
  br i1 %15, label %16, label %42

16:                                               ; preds = %14
  call void @llvm.lifetime.start.p0(i64 32, ptr %8) #13
  call void @_ZN25btDiscreteDynamicsWorldMt31UpdaterCreatePredictiveContactsC2Ev(ptr noundef nonnull align 8 dereferenceable(32) %8) #13
  %17 = getelementptr inbounds nuw %"struct.btDiscreteDynamicsWorldMt::UpdaterCreatePredictiveContacts", ptr %8, i32 0, i32 3
  store ptr %10, ptr %17, align 8, !tbaa !140
  %18 = load float, ptr %4, align 4, !tbaa !129
  %19 = getelementptr inbounds nuw %"struct.btDiscreteDynamicsWorldMt::UpdaterCreatePredictiveContacts", ptr %8, i32 0, i32 1
  store float %18, ptr %19, align 8, !tbaa !142
  %20 = getelementptr inbounds nuw %class.btDiscreteDynamicsWorld, ptr %10, i32 0, i32 6
  %21 = invoke noundef nonnull align 8 dereferenceable(8) ptr @_ZN20btAlignedObjectArrayIP11btRigidBodyEixEi(ptr noundef nonnull align 8 dereferenceable(25) %20, i32 noundef 0)
          to label %22 unwind label %33

22:                                               ; preds = %16
  %23 = getelementptr inbounds nuw %"struct.btDiscreteDynamicsWorldMt::UpdaterCreatePredictiveContacts", ptr %8, i32 0, i32 2
  store ptr %21, ptr %23, align 8, !tbaa !143
  call void @llvm.lifetime.start.p0(i64 4, ptr %9) #13
  store i32 50, ptr %9, align 4, !tbaa !9
  %24 = getelementptr inbounds nuw %class.btDiscreteDynamicsWorld, ptr %10, i32 0, i32 6
  %25 = invoke noundef i32 @_ZNK20btAlignedObjectArrayIP11btRigidBodyE4sizeEv(ptr noundef nonnull align 8 dereferenceable(25) %24)
          to label %26 unwind label %37

26:                                               ; preds = %22
  %27 = load i32, ptr %9, align 4, !tbaa !9
  invoke void @_Z13btParallelForiiiRK18btIParallelForBody(i32 noundef 0, i32 noundef %25, i32 noundef %27, ptr noundef nonnull align 8 dereferenceable(8) %8)
          to label %28 unwind label %37

28:                                               ; preds = %26
  call void @llvm.lifetime.end.p0(i64 4, ptr %9) #13
  call void @_ZN18btIParallelForBodyD2Ev(ptr noundef nonnull align 8 dereferenceable(32) %8) #13
  call void @llvm.lifetime.end.p0(i64 32, ptr %8) #13
  br label %42

29:                                               ; preds = %11, %2
  %30 = landingpad { ptr, i32 }
          cleanup
  %31 = extractvalue { ptr, i32 } %30, 0
  store ptr %31, ptr %6, align 8
  %32 = extractvalue { ptr, i32 } %30, 1
  store i32 %32, ptr %7, align 4
  br label %43

33:                                               ; preds = %16
  %34 = landingpad { ptr, i32 }
          cleanup
  %35 = extractvalue { ptr, i32 } %34, 0
  store ptr %35, ptr %6, align 8
  %36 = extractvalue { ptr, i32 } %34, 1
  store i32 %36, ptr %7, align 4
  br label %41

37:                                               ; preds = %26, %22
  %38 = landingpad { ptr, i32 }
          cleanup
  %39 = extractvalue { ptr, i32 } %38, 0
  store ptr %39, ptr %6, align 8
  %40 = extractvalue { ptr, i32 } %38, 1
  store i32 %40, ptr %7, align 4
  call void @llvm.lifetime.end.p0(i64 4, ptr %9) #13
  br label %41

41:                                               ; preds = %37, %33
  call void @_ZN18btIParallelForBodyD2Ev(ptr noundef nonnull align 8 dereferenceable(32) %8) #13
  call void @llvm.lifetime.end.p0(i64 32, ptr %8) #13
  br label %43

42:                                               ; preds = %28, %14
  call void @_ZN14CProfileSampleD1Ev(ptr noundef nonnull align 1 dereferenceable(1) %5) #13
  call void @llvm.lifetime.end.p0(i64 1, ptr %5) #13
  ret void

43:                                               ; preds = %41, %29
  call void @_ZN14CProfileSampleD1Ev(ptr noundef nonnull align 1 dereferenceable(1) %5) #13
  call void @llvm.lifetime.end.p0(i64 1, ptr %5) #13
  br label %44

44:                                               ; preds = %43
  %45 = load ptr, ptr %6, align 8
  %46 = load i32, ptr %7, align 4
  %47 = insertvalue { ptr, i32 } poison, ptr %45, 0
  %48 = insertvalue { ptr, i32 } %47, i32 %46, 1
  resume { ptr, i32 } %48
}