; Function Attrs: mustprogress uwtable
define dso_local void @_ZN25btDiscreteDynamicsWorldMt24createPredictiveContactsEf(ptr noundef nonnull align 8 dereferenceable(520) %0, float noundef %1) unnamed_addr #0 align 2 personality ptr @__gxx_personality_v0 {
  %3 = alloca %class.CProfileSample, align 1
  %4 = alloca %"struct.btDiscreteDynamicsWorldMt::UpdaterCreatePredictiveContacts", align 8
  call void @llvm.lifetime.start.p0(i64 1, ptr nonnull %3) #11
  call void @_ZN14CProfileSampleC1EPKc(ptr noundef nonnull align 1 dereferenceable(1) %3, ptr noundef nonnull @.str.2)
  invoke void @_ZN23btDiscreteDynamicsWorld25releasePredictiveContactsEv(ptr noundef nonnull align 8 dereferenceable(508) %0)
          to label %5 unwind label %16

5:                                                ; preds = %2
  %6 = getelementptr inbounds nuw i8, ptr %0, i64 372
  %7 = load i32, ptr %6, align 4, !tbaa !102
  %8 = icmp sgt i32 %7, 0
  br i1 %8, label %9, label %20

9:                                                ; preds = %5
  call void @llvm.lifetime.start.p0(i64 32, ptr nonnull %4) #11
  store ptr getelementptr inbounds nuw inrange(-16, 24) (i8, ptr @_ZTVN25btDiscreteDynamicsWorldMt31UpdaterCreatePredictiveContactsE, i64 16), ptr %4, align 8, !tbaa !34
  %10 = getelementptr inbounds nuw i8, ptr %4, i64 24
  store ptr %0, ptr %10, align 8, !tbaa !108
  %11 = getelementptr inbounds nuw i8, ptr %4, i64 8
  store float %1, ptr %11, align 8, !tbaa !111
  %12 = getelementptr inbounds nuw i8, ptr %0, i64 384
  %13 = load ptr, ptr %12, align 8, !tbaa !106
  %14 = getelementptr inbounds nuw i8, ptr %4, i64 16
  store ptr %13, ptr %14, align 8, !tbaa !112
  invoke void @_Z13btParallelForiiiRK18btIParallelForBody(i32 noundef 0, i32 noundef %7, i32 noundef 50, ptr noundef nonnull align 8 dereferenceable(8) %4)
          to label %15 unwind label %18

15:                                               ; preds = %9
  call void @llvm.lifetime.end.p0(i64 32, ptr nonnull %4) #11
  br label %20

16:                                               ; preds = %2
  %17 = landingpad { ptr, i32 }
          cleanup
  br label %21

18:                                               ; preds = %9
  %19 = landingpad { ptr, i32 }
          cleanup
  call void @llvm.lifetime.end.p0(i64 32, ptr nonnull %4) #11
  br label %21

20:                                               ; preds = %15, %5
  call void @_ZN14CProfileSampleD1Ev(ptr noundef nonnull align 1 dereferenceable(1) %3) #11
  call void @llvm.lifetime.end.p0(i64 1, ptr nonnull %3) #11
  ret void

21:                                               ; preds = %18, %16
  %.pn = phi { ptr, i32 } [ %19, %18 ], [ %17, %16 ]
  call void @_ZN14CProfileSampleD1Ev(ptr noundef nonnull align 1 dereferenceable(1) %3) #11
  call void @llvm.lifetime.end.p0(i64 1, ptr nonnull %3) #11
  resume { ptr, i32 } %.pn
}